; Function Attrs: mustprogress uwtable
define hidden void @_ZN4cvc58internal6theory11quantifiers8TermUtil11mkTypeConstENS0_8TypeNodeEb(ptr dead_on_unwind noalias writable sret(%"class.cvc5::internal::NodeTemplate") align 8 %0, ptr noundef readonly captures(none) %1, i1 noundef zeroext %2) local_unnamed_addr #3 align 2 personality ptr @__gxx_personality_v0 {
  %4 = alloca %"class.cvc5::internal::TypeNode", align 8
  %5 = alloca %"class.cvc5::internal::TypeNode", align 8
  %6 = load ptr, ptr %1, align 8, !tbaa !250
  br i1 %2, label %7, label %22

7:                                                ; preds = %3
  store ptr %6, ptr %4, align 8, !tbaa !250
  %8 = load i64, ptr %6, align 8
  %9 = lshr i64 %8, 40
  %10 = trunc nuw nsw i64 %9 to i32
  %11 = and i32 %10, 1048575
  %12 = icmp samesign ult i32 %11, 1048574
  br i1 %12, label %13, label %18, !prof !13

13:                                               ; preds = %7
  %14 = add i64 %8, 1099511627776
  %15 = and i64 %14, 1152920405095219200
  %16 = and i64 %8, -1152920405095219201
  %17 = or disjoint i64 %15, %16
  store i64 %17, ptr %6, align 8
  br label %_ZN4cvc58internal8TypeNodeC2ERKS1_.exit

18:                                               ; preds = %7
  %19 = icmp eq i32 %11, 1048574
  br i1 %19, label %20, label %_ZN4cvc58internal8TypeNodeC2ERKS1_.exit, !prof !14

20:                                               ; preds = %18
  %21 = or i64 %8, 1152920405095219200
  store i64 %21, ptr %6, align 8
  tail call void @_ZN4cvc58internal4expr9NodeValue20markRefCountMaxedOutEv(ptr noundef nonnull align 8 dereferenceable(24) %6)
  br label %_ZN4cvc58internal8TypeNodeC2ERKS1_.exit

_ZN4cvc58internal8TypeNodeC2ERKS1_.exit:          ; preds = %13, %18, %20
  invoke void @_ZN4cvc58internal6theory11quantifiers8TermUtil14mkTypeMaxValueENS0_8TypeNodeE(ptr dead_on_unwind writable sret(%"class.cvc5::internal::NodeTemplate") align 8 %0, ptr noundef nonnull %4)
          to label %.critedge unwind label %65

22:                                               ; preds = %3
  store ptr %6, ptr %5, align 8, !tbaa !250
  %23 = load i64, ptr %6, align 8
  %24 = lshr i64 %23, 40
  %25 = trunc nuw nsw i64 %24 to i32
  %26 = and i32 %25, 1048575
  %27 = icmp samesign ult i32 %26, 1048574
  br i1 %27, label %28, label %33, !prof !13

28:                                               ; preds = %22
  %29 = add i64 %23, 1099511627776
  %30 = and i64 %29, 1152920405095219200
  %31 = and i64 %23, -1152920405095219201
  %32 = or disjoint i64 %30, %31
  store i64 %32, ptr %6, align 8
  br label %_ZN4cvc58internal8TypeNodeC2ERKS1_.exit10

33:                                               ; preds = %22
  %34 = icmp eq i32 %26, 1048574
  br i1 %34, label %35, label %_ZN4cvc58internal8TypeNodeC2ERKS1_.exit10, !prof !14

35:                                               ; preds = %33
  %36 = or i64 %23, 1152920405095219200
  store i64 %36, ptr %6, align 8
  tail call void @_ZN4cvc58internal4expr9NodeValue20markRefCountMaxedOutEv(ptr noundef nonnull align 8 dereferenceable(24) %6)
  br label %_ZN4cvc58internal8TypeNodeC2ERKS1_.exit10

_ZN4cvc58internal8TypeNodeC2ERKS1_.exit10:        ; preds = %35, %33, %28
  invoke void @_ZN4cvc58internal6theory11quantifiers8TermUtil11mkTypeValueENS0_8TypeNodeEi(ptr dead_on_unwind writable sret(%"class.cvc5::internal::NodeTemplate") align 8 %0, ptr noundef nonnull %5, i32 noundef 0)
          to label %37 unwind label %.thread13

37:                                               ; preds = %_ZN4cvc58internal8TypeNodeC2ERKS1_.exit10
  %38 = load ptr, ptr %5, align 8, !tbaa !250
  %39 = load i64, ptr %38, align 8
  %40 = and i64 %39, 1152920405095219200
  %.not.i.i = icmp eq i64 %40, 1152920405095219200
  br i1 %.not.i.i, label %_ZN4cvc58internal8TypeNodeD2Ev.exit, label %41, !prof !14

41:                                               ; preds = %37
  %42 = add i64 %39, 1152920405095219200
  %43 = and i64 %42, 1152920405095219200
  %44 = and i64 %39, -1152920405095219201
  %45 = or disjoint i64 %43, %44
  store i64 %45, ptr %38, align 8
  %46 = icmp eq i64 %43, 0
  br i1 %46, label %47, label %_ZN4cvc58internal8TypeNodeD2Ev.exit, !prof !14

47:                                               ; preds = %41
  invoke void @_ZN4cvc58internal4expr9NodeValue15markForDeletionEv(ptr noundef nonnull align 8 dereferenceable(24) %38)
          to label %_ZN4cvc58internal8TypeNodeD2Ev.exit unwind label %48

48:                                               ; preds = %47
  %49 = landingpad { ptr, i32 }
          catch ptr null
  %50 = extractvalue { ptr, i32 } %49, 0
  call void @__clang_call_terminate(ptr %50) #25
  unreachable

.critedge:                                        ; preds = %_ZN4cvc58internal8TypeNodeC2ERKS1_.exit
  %51 = load ptr, ptr %4, align 8, !tbaa !250
  %52 = load i64, ptr %51, align 8
  %53 = and i64 %52, 1152920405095219200
  %.not.i.i11 = icmp eq i64 %53, 1152920405095219200
  br i1 %.not.i.i11, label %_ZN4cvc58internal8TypeNodeD2Ev.exit, label %54, !prof !14

54:                                               ; preds = %.critedge
  %55 = add i64 %52, 1152920405095219200
  %56 = and i64 %55, 1152920405095219200
  %57 = and i64 %52, -1152920405095219201
  %58 = or disjoint i64 %56, %57
  store i64 %58, ptr %51, align 8
  %59 = icmp eq i64 %56, 0
  br i1 %59, label %60, label %_ZN4cvc58internal8TypeNodeD2Ev.exit, !prof !14

60:                                               ; preds = %54
  invoke void @_ZN4cvc58internal4expr9NodeValue15markForDeletionEv(ptr noundef nonnull align 8 dereferenceable(24) %51)
          to label %_ZN4cvc58internal8TypeNodeD2Ev.exit unwind label %61

61:                                               ; preds = %60
  %62 = landingpad { ptr, i32 }
          catch ptr null
  %63 = extractvalue { ptr, i32 } %62, 0
  call void @__clang_call_terminate(ptr %63) #25
  unreachable

_ZN4cvc58internal8TypeNodeD2Ev.exit:              ; preds = %60, %54, %.critedge, %47, %41, %37
  ret void

.thread13:                                        ; preds = %_ZN4cvc58internal8TypeNodeC2ERKS1_.exit10
  %64 = landingpad { ptr, i32 }
          cleanup
  br label %67

65:                                               ; preds = %_ZN4cvc58internal8TypeNodeC2ERKS1_.exit
  %66 = landingpad { ptr, i32 }
          cleanup
  br label %67

67:                                               ; preds = %.thread13, %65
  %.sink = phi ptr [ %5, %.thread13 ], [ %4, %65 ]
  %.pn16 = phi { ptr, i32 } [ %64, %.thread13 ], [ %66, %65 ]
  call void @_ZN4cvc58internal8TypeNodeD2Ev(ptr noundef nonnull align 8 dereferenceable(8) %.sink) #24
  resume { ptr, i32 } %.pn16
}